#include <math.h>
#include <stdio.h>
#include <stdlib.h>
#include <string.h>

int main()
{
	
	int max1=0;
	int max2=0;
	int a;
	int count=0;
	do
	{
		scanf("%d",&a);
		if(a>max1)
		{
			max2=max1;
			max1=a;
		}
		else if(a<max1&&a>max2)
			max2=a;
		count++;
	}
	while(getchar()!='\n');
	if(max2==0||count==1)
		printf("No\n");
	else
		printf("%d\n",max2);
	return 0;
}