; ModuleID = '22/905.c'
source_filename = "22/905.c"
target datalayout = "e-m:e-p270:32:32-p271:32:32-p272:64:64-i64:64-f80:128-n8:16:32:64-S128"
target triple = "x86_64-pc-linux-gnu"

@.str = private unnamed_addr constant [3 x i8] c"%d\00", align 1
@.str.1 = private unnamed_addr constant [4 x i8] c"No\0A\00", align 1
@.str.2 = private unnamed_addr constant [4 x i8] c"%d\0A\00", align 1

; Function Attrs: noinline nounwind uwtable
define dso_local i32 @main() #0 {
  %1 = alloca i32, align 4
  %2 = alloca i32, align 4
  %3 = alloca i32, align 4
  %4 = alloca i32, align 4
  %5 = alloca i32, align 4
  store i32 0, i32* %1, align 4
  store i32 0, i32* %2, align 4
  store i32 0, i32* %3, align 4
  store i32 0, i32* %5, align 4
  br label %6

6:                                                ; preds = %28, %0
  %7 = call i32 (i8*, ...) @__isoc99_scanf(i8* getelementptr inbounds ([3 x i8], [3 x i8]* @.str, i64 0, i64 0), i32* %4)
  %8 = load i32, i32* %4, align 4
  %9 = load i32, i32* %2, align 4
  %10 = icmp sgt i32 %8, %9
  br i1 %10, label %11, label %14

11:                                               ; preds = %6
  %12 = load i32, i32* %2, align 4
  store i32 %12, i32* %3, align 4
  %13 = load i32, i32* %4, align 4
  store i32 %13, i32* %2, align 4
  br label %25

14:                                               ; preds = %6
  %15 = load i32, i32* %4, align 4
  %16 = load i32, i32* %2, align 4
  %17 = icmp slt i32 %15, %16
  br i1 %17, label %18, label %24

18:                                               ; preds = %14
  %19 = load i32, i32* %4, align 4
  %20 = load i32, i32* %3, align 4
  %21 = icmp sgt i32 %19, %20
  br i1 %21, label %22, label %24

22:                                               ; preds = %18
  %23 = load i32, i32* %4, align 4
  store i32 %23, i32* %3, align 4
  br label %24

24:                                               ; preds = %22, %18, %14
  br label %25

25:                                               ; preds = %24, %11
  %26 = load i32, i32* %5, align 4
  %27 = add nsw i32 %26, 1
  store i32 %27, i32* %5, align 4
  br label %28

28:                                               ; preds = %25
  %29 = call i32 @getchar()
  %30 = icmp ne i32 %29, 10
  br i1 %30, label %6, label %31

31:                                               ; preds = %28
  %32 = load i32, i32* %3, align 4
  %33 = icmp eq i32 %32, 0
  br i1 %33, label %37, label %34

34:                                               ; preds = %31
  %35 = load i32, i32* %5, align 4
  %36 = icmp eq i32 %35, 1
  br i1 %36, label %37, label %39

37:                                               ; preds = %34, %31
  %38 = call i32 (i8*, ...) @printf(i8* getelementptr inbounds ([4 x i8], [4 x i8]* @.str.1, i64 0, i64 0))
  br label %42

39:                                               ; preds = %34
  %40 = load i32, i32* %3, align 4
  %41 = call i32 (i8*, ...) @printf(i8* getelementptr inbounds ([4 x i8], [4 x i8]* @.str.2, i64 0, i64 0), i32 %40)
  br label %42

42:                                               ; preds = %39, %37
  ret i32 0
}

declare dso_local i32 @__isoc99_scanf(i8*, ...) #1

declare dso_local i32 @getchar() #1

declare dso_local i32 @printf(i8*, ...) #1


!llvm.module.flags = !{!0}
!llvm.ident = !{!1}

!0 = !{i32 1, !"wchar_size", i32 4}
!1 = !{!"clang version 10.0.0-4ubuntu1 "}
